target datalayout = "e-m:e-p270:32:32-p271:32:32-p272:64:64-i64:64-i128:128-f80:128-n8:16:32:64-S128"
target triple = "x86_64-pc-linux-gnu"

%struct.H5S_t = type { %struct.H5S_extent_t, %struct.H5S_select_t }
%struct.H5S_extent_t = type { %struct.H5O_shared_t, i32, i32, i64, i32, ptr, ptr }
%struct.H5O_shared_t = type { i32, ptr, i32, %union.anon }
%union.anon = type { %struct.H5O_mesg_loc_t }
%struct.H5O_mesg_loc_t = type { i32, i64 }
%struct.H5S_select_t = type { ptr, i8, [32 x i64], i64, %union.anon.0 }
%union.anon.0 = type { ptr }

@H5S_init_g = global i8 0, align 1
@H5_H5S_t_reg_free_list = global { i8, [3 x i8], i32, i32, [4 x i8], ptr, i64, ptr } { i8 0, [3 x i8] zeroinitializer, i32 0, i32 0, [4 x i8] zeroinitializer, ptr @.str.1, i64 368, ptr null }, align 8
@H5_libterm_g = external global i8, align 1
@.str.3 = private unnamed_addr constant [97 x i8] c"generated/home/dtcxzyw/WorkSpace/Projects/compilers/llvm-opt-benchmark/bench/hdf5/hdf5/src/H5S.c\00", align 1
@H5E_FUNC_g = external global i64, align 8
@H5E_CANTINIT_g = external global i64, align 8
@.str.4 = private unnamed_addr constant [32 x i8] c"interface initialization failed\00", align 1
@H5E_DATASPACE_g = external global i64, align 8
@H5E_RESOURCE_g = external global i64, align 8
@H5E_NOSPACE_g = external global i64, align 8
@.str.7 = private unnamed_addr constant [25 x i8] c"memory allocation failed\00", align 1
@H5E_CANTSET_g = external global i64, align 8
@.str.8 = private unnamed_addr constant [28 x i8] c"unable to set all selection\00", align 1
@__func__.H5S_read = private unnamed_addr constant [9 x i8] c"H5S_read\00", align 1
@.str.29 = private unnamed_addr constant [50 x i8] c"unable to load dataspace info from dataset header\00", align 1

; Function Attrs: nounwind uwtable
define ptr @H5S_read(ptr noundef %0) #0 {
  %2 = alloca ptr, align 8
  %3 = alloca ptr, align 8
  %4 = alloca ptr, align 8
  %5 = alloca i8, align 1
  store ptr %0, ptr %2, align 8, !tbaa !50
  call void @llvm.lifetime.start.p0(i64 8, ptr %3) #7
  store ptr null, ptr %3, align 8, !tbaa !13
  call void @llvm.lifetime.start.p0(i64 8, ptr %4) #7
  store ptr null, ptr %4, align 8, !tbaa !13
  call void @llvm.lifetime.start.p0(i64 1, ptr %5) #7
  store i8 0, ptr %5, align 1, !tbaa !7
  %6 = load i8, ptr @H5S_init_g, align 1, !tbaa !7, !range !9, !noundef !10
  %7 = trunc i8 %6 to i1
  br i1 %7, label %12, label %8

8:                                                ; preds = %1
  %9 = load i8, ptr @H5_libterm_g, align 1, !tbaa !7, !range !9, !noundef !10
  %10 = trunc i8 %9 to i1
  %11 = xor i1 %10, true
  br label %12

12:                                               ; preds = %8, %1
  %13 = phi i1 [ false, %1 ], [ %11, %8 ]
  %14 = xor i1 %13, true
  %15 = xor i1 %14, true
  %16 = zext i1 %15 to i32
  %17 = sext i32 %16 to i64
  %18 = call i64 @llvm.expect.i64(i64 %17, i64 0)
  %19 = icmp ne i64 %18, 0
  br i1 %19, label %20, label %43

20:                                               ; preds = %12
  store i8 1, ptr @H5S_init_g, align 1, !tbaa !7
  %21 = call i32 @H5S__init_package()
  %22 = icmp slt i32 %21, 0
  br i1 %22, label %23, label %42

23:                                               ; preds = %20
  store i8 0, ptr @H5S_init_g, align 1, !tbaa !7
  br label %24

24:                                               ; preds = %23
  br label %25

25:                                               ; preds = %24
  br label %26

26:                                               ; preds = %25
  %27 = load i64, ptr @H5E_FUNC_g, align 8, !tbaa !11
  %28 = load i64, ptr @H5E_CANTINIT_g, align 8, !tbaa !11
  %29 = call i32 (ptr, ptr, i32, i64, i64, ptr, ...) @H5E_printf_stack(ptr noundef @.str.3, ptr noundef @__func__.H5S_read, i32 noundef 1092, i64 noundef %27, i64 noundef %28, ptr noundef @.str.4)
  br label %30

30:                                               ; preds = %26
  br label %31

31:                                               ; preds = %30
  store i8 1, ptr %5, align 1, !tbaa !7
  %32 = load i8, ptr %5, align 1, !tbaa !7, !range !9, !noundef !10
  %33 = trunc i8 %32 to i1
  %34 = zext i1 %33 to i8
  store i8 %34, ptr %5, align 1, !tbaa !7
  br label %35

35:                                               ; preds = %31
  br label %36

36:                                               ; preds = %35
  br label %37

37:                                               ; preds = %36
  store ptr null, ptr %4, align 8, !tbaa !13
  br label %130

38:                                               ; No predecessors!
  br label %39

39:                                               ; preds = %38
  br label %40

40:                                               ; preds = %39
  br label %41

41:                                               ; preds = %40
  br label %42

42:                                               ; preds = %41, %20
  br label %43

43:                                               ; preds = %42, %12
  %44 = load i8, ptr @H5S_init_g, align 1, !tbaa !7, !range !9, !noundef !10
  %45 = trunc i8 %44 to i1
  br i1 %45, label %50, label %46

46:                                               ; preds = %43
  %47 = load i8, ptr @H5_libterm_g, align 1, !tbaa !7, !range !9, !noundef !10
  %48 = trunc i8 %47 to i1
  %49 = xor i1 %48, true
  br label %50

50:                                               ; preds = %46, %43
  %51 = phi i1 [ true, %43 ], [ %49, %46 ]
  %52 = xor i1 %51, true
  %53 = xor i1 %52, true
  %54 = zext i1 %53 to i32
  %55 = sext i32 %54 to i64
  %56 = call i64 @llvm.expect.i64(i64 %55, i64 1)
  %57 = icmp ne i64 %56, 0
  br i1 %57, label %58, label %141

58:                                               ; preds = %50
  %59 = call noalias ptr @H5FL_reg_calloc(ptr noundef @H5_H5S_t_reg_free_list)
  store ptr %59, ptr %3, align 8, !tbaa !13
  %60 = icmp eq ptr null, %59
  br i1 %60, label %61, label %80

61:                                               ; preds = %58
  br label %62

62:                                               ; preds = %61
  br label %63

63:                                               ; preds = %62
  br label %64

64:                                               ; preds = %63
  %65 = load i64, ptr @H5E_RESOURCE_g, align 8, !tbaa !11
  %66 = load i64, ptr @H5E_NOSPACE_g, align 8, !tbaa !11
  %67 = call i32 (ptr, ptr, i32, i64, i64, ptr, ...) @H5E_printf_stack(ptr noundef @.str.3, ptr noundef @__func__.H5S_read, i32 noundef 1098, i64 noundef %65, i64 noundef %66, ptr noundef @.str.7)
  br label %68

68:                                               ; preds = %64
  br label %69

69:                                               ; preds = %68
  store i8 1, ptr %5, align 1, !tbaa !7
  %70 = load i8, ptr %5, align 1, !tbaa !7, !range !9, !noundef !10
  %71 = trunc i8 %70 to i1
  %72 = zext i1 %71 to i8
  store i8 %72, ptr %5, align 1, !tbaa !7
  br label %73

73:                                               ; preds = %69
  br label %74

74:                                               ; preds = %73
  br label %75

75:                                               ; preds = %74
  store ptr null, ptr %4, align 8, !tbaa !13
  br label %130

76:                                               ; No predecessors!
  br label %77

77:                                               ; preds = %76
  br label %78

78:                                               ; preds = %77
  br label %79

79:                                               ; preds = %78
  br label %80

80:                                               ; preds = %79, %58
  %81 = load ptr, ptr %2, align 8, !tbaa !50
  %82 = load ptr, ptr %3, align 8, !tbaa !13
  %83 = getelementptr inbounds nuw %struct.H5S_t, ptr %82, i32 0, i32 0
  %84 = call ptr @H5O_msg_read(ptr noundef %81, i32 noundef 1, ptr noundef %83)
  %85 = icmp eq ptr null, %84
  br i1 %85, label %86, label %105

86:                                               ; preds = %80
  br label %87

87:                                               ; preds = %86
  br label %88

88:                                               ; preds = %87
  br label %89

89:                                               ; preds = %88
  %90 = load i64, ptr @H5E_DATASPACE_g, align 8, !tbaa !11
  %91 = load i64, ptr @H5E_CANTINIT_g, align 8, !tbaa !11
  %92 = call i32 (ptr, ptr, i32, i64, i64, ptr, ...) @H5E_printf_stack(ptr noundef @.str.3, ptr noundef @__func__.H5S_read, i32 noundef 1101, i64 noundef %90, i64 noundef %91, ptr noundef @.str.29)
  br label %93

93:                                               ; preds = %89
  br label %94

94:                                               ; preds = %93
  store i8 1, ptr %5, align 1, !tbaa !7
  %95 = load i8, ptr %5, align 1, !tbaa !7, !range !9, !noundef !10
  %96 = trunc i8 %95 to i1
  %97 = zext i1 %96 to i8
  store i8 %97, ptr %5, align 1, !tbaa !7
  br label %98

98:                                               ; preds = %94
  br label %99

99:                                               ; preds = %98
  br label %100

100:                                              ; preds = %99
  store ptr null, ptr %4, align 8, !tbaa !13
  br label %130

101:                                              ; No predecessors!
  br label %102

102:                                              ; preds = %101
  br label %103

103:                                              ; preds = %102
  br label %104

104:                                              ; preds = %103
  br label %105

105:                                              ; preds = %104, %80
  %106 = load ptr, ptr %3, align 8, !tbaa !13
  %107 = call i32 @H5S_select_all(ptr noundef %106, i1 noundef zeroext false)
  %108 = icmp slt i32 %107, 0
  br i1 %108, label %109, label %128

109:                                              ; preds = %105
  br label %110

110:                                              ; preds = %109
  br label %111

111:                                              ; preds = %110
  br label %112

112:                                              ; preds = %111
  %113 = load i64, ptr @H5E_DATASPACE_g, align 8, !tbaa !11
  %114 = load i64, ptr @H5E_CANTSET_g, align 8, !tbaa !11
  %115 = call i32 (ptr, ptr, i32, i64, i64, ptr, ...) @H5E_printf_stack(ptr noundef @.str.3, ptr noundef @__func__.H5S_read, i32 noundef 1105, i64 noundef %113, i64 noundef %114, ptr noundef @.str.8)
  br label %116

116:                                              ; preds = %112
  br label %117

117:                                              ; preds = %116
  store i8 1, ptr %5, align 1, !tbaa !7
  %118 = load i8, ptr %5, align 1, !tbaa !7, !range !9, !noundef !10
  %119 = trunc i8 %118 to i1
  %120 = zext i1 %119 to i8
  store i8 %120, ptr %5, align 1, !tbaa !7
  br label %121

121:                                              ; preds = %117
  br label %122

122:                                              ; preds = %121
  br label %123

123:                                              ; preds = %122
  store ptr null, ptr %4, align 8, !tbaa !13
  br label %130

124:                                              ; No predecessors!
  br label %125

125:                                              ; preds = %124
  br label %126

126:                                              ; preds = %125
  br label %127

127:                                              ; preds = %126
  br label %128

128:                                              ; preds = %127, %105
  %129 = load ptr, ptr %3, align 8, !tbaa !13
  store ptr %129, ptr %4, align 8, !tbaa !13
  br label %130

130:                                              ; preds = %128, %123, %100, %75, %37
  %131 = load ptr, ptr %4, align 8, !tbaa !13
  %132 = icmp eq ptr %131, null
  br i1 %132, label %133, label %140

133:                                              ; preds = %130
  %134 = load ptr, ptr %3, align 8, !tbaa !13
  %135 = icmp ne ptr %134, null
  br i1 %135, label %136, label %139

136:                                              ; preds = %133
  %137 = load ptr, ptr %3, align 8, !tbaa !13
  %138 = call ptr @H5FL_reg_free(ptr noundef @H5_H5S_t_reg_free_list, ptr noundef %137)
  store ptr %138, ptr %3, align 8, !tbaa !13
  br label %139

139:                                              ; preds = %136, %133
  br label %140

140:                                              ; preds = %139, %130
  br label %141

141:                                              ; preds = %140, %50
  %142 = load ptr, ptr %4, align 8, !tbaa !13
  call void @llvm.lifetime.end.p0(i64 1, ptr %5) #7
  call void @llvm.lifetime.end.p0(i64 8, ptr %4) #7
  call void @llvm.lifetime.end.p0(i64 8, ptr %3) #7
  ret ptr %142
}