; Function Attrs: nounwind uwtable
define ptr @H5S_read(ptr noundef %0) local_unnamed_addr #0 {
  %2 = load i8, ptr @H5S_init_g, align 1, !tbaa !3, !range !7, !noundef !8
  %3 = trunc nuw i8 %2 to i1
  %4 = load i8, ptr @H5_libterm_g, align 1, !range !7
  %5 = trunc nuw i8 %4 to i1
  %6 = select i1 %3, i1 true, i1 %5
  br i1 %6, label %14, label %7, !prof !9

7:                                                ; preds = %1
  store i8 1, ptr @H5S_init_g, align 1, !tbaa !3
  %8 = tail call i32 @H5S__init_package()
  %9 = icmp slt i32 %8, 0
  br i1 %9, label %10, label %._crit_edge

._crit_edge:                                      ; preds = %7
  %.pre = load i8, ptr @H5S_init_g, align 1, !tbaa !3, !range !7
  %.pre18 = load i8, ptr @H5_libterm_g, align 1, !range !7
  %.pre19 = trunc nuw i8 %.pre to i1
  %.pre20 = trunc nuw i8 %.pre18 to i1
  br label %14

10:                                               ; preds = %7
  store i8 0, ptr @H5S_init_g, align 1, !tbaa !3
  %11 = load i64, ptr @H5E_FUNC_g, align 8, !tbaa !10
  %12 = load i64, ptr @H5E_CANTINIT_g, align 8, !tbaa !10
  %13 = tail call i32 (ptr, ptr, i32, i64, i64, ptr, ...) @H5E_printf_stack(ptr noundef nonnull @.str.3, ptr noundef nonnull @__func__.H5S_read, i32 noundef 1092, i64 noundef %11, i64 noundef %12, ptr noundef nonnull @.str.4) #10
  br label %.thread

14:                                               ; preds = %._crit_edge, %1
  %.pre-phi21 = phi i1 [ %.pre20, %._crit_edge ], [ %5, %1 ]
  %.pre-phi = phi i1 [ %.pre19, %._crit_edge ], [ %3, %1 ]
  %15 = xor i1 %.pre-phi21, true
  %16 = select i1 %.pre-phi, i1 true, i1 %15
  br i1 %16, label %17, label %.thread, !prof !9

17:                                               ; preds = %14
  %18 = tail call noalias ptr @H5FL_reg_calloc(ptr noundef nonnull @H5_H5S_t_reg_free_list) #10
  %19 = icmp eq ptr %18, null
  br i1 %19, label %20, label %24

20:                                               ; preds = %17
  %21 = load i64, ptr @H5E_RESOURCE_g, align 8, !tbaa !10
  %22 = load i64, ptr @H5E_NOSPACE_g, align 8, !tbaa !10
  %23 = tail call i32 (ptr, ptr, i32, i64, i64, ptr, ...) @H5E_printf_stack(ptr noundef nonnull @.str.3, ptr noundef nonnull @__func__.H5S_read, i32 noundef 1098, i64 noundef %21, i64 noundef %22, ptr noundef nonnull @.str.7) #10
  br label %.thread

24:                                               ; preds = %17
  %25 = tail call ptr @H5O_msg_read(ptr noundef %0, i32 noundef 1, ptr noundef nonnull %18) #10
  %26 = icmp eq ptr %25, null
  br i1 %26, label %27, label %31

27:                                               ; preds = %24
  %28 = load i64, ptr @H5E_DATASPACE_g, align 8, !tbaa !10
  %29 = load i64, ptr @H5E_CANTINIT_g, align 8, !tbaa !10
  %30 = tail call i32 (ptr, ptr, i32, i64, i64, ptr, ...) @H5E_printf_stack(ptr noundef nonnull @.str.3, ptr noundef nonnull @__func__.H5S_read, i32 noundef 1101, i64 noundef %28, i64 noundef %29, ptr noundef nonnull @.str.29) #10
  br label %38

31:                                               ; preds = %24
  %32 = tail call i32 @H5S_select_all(ptr noundef nonnull %18, i1 noundef zeroext false) #10
  %33 = icmp slt i32 %32, 0
  br i1 %33, label %34, label %.thread

34:                                               ; preds = %31
  %35 = load i64, ptr @H5E_DATASPACE_g, align 8, !tbaa !10
  %36 = load i64, ptr @H5E_CANTSET_g, align 8, !tbaa !10
  %37 = tail call i32 (ptr, ptr, i32, i64, i64, ptr, ...) @H5E_printf_stack(ptr noundef nonnull @.str.3, ptr noundef nonnull @__func__.H5S_read, i32 noundef 1105, i64 noundef %35, i64 noundef %36, ptr noundef nonnull @.str.8) #10
  br label %38

38:                                               ; preds = %27, %34
  %39 = tail call ptr @H5FL_reg_free(ptr noundef nonnull @H5_H5S_t_reg_free_list, ptr noundef nonnull %18) #10
  br label %.thread

.thread:                                          ; preds = %20, %10, %31, %38, %14
  %.1 = phi ptr [ null, %38 ], [ null, %14 ], [ %18, %31 ], [ null, %20 ], [ null, %10 ]
  ret ptr %.1
}